target datalayout = "e-m:e-p270:32:32-p271:32:32-p272:64:64-i64:64-i128:128-f80:128-n8:16:32:64-S128"
target triple = "x86_64-pc-linux-gnu"

%"class.std::function.22" = type { %"class.std::_Function_base", ptr }
%"class.std::_Function_base" = type { %"union.std::_Any_data", ptr }
%"union.std::_Any_data" = type { %"union.std::_Nocopy_types" }
%"union.std::_Nocopy_types" = type { { i64, i64 } }
%class.anon = type <{ ptr, i64, double, i8, i8, i8, [5 x i8] }>
%"class.gmx::TrajectoryElement" = type { %"class.gmx::ISimulatorElement", %"class.gmx::ILoggingSignallerClient", %"class.gmx::ITrajectorySignallerClient", i64, i64, i64, ptr, %"class.std::vector", %"class.std::vector.2", %"class.std::vector.2" }
%"class.gmx::ISimulatorElement" = type { ptr }
%"class.gmx::ILoggingSignallerClient" = type { ptr }
%"class.gmx::ITrajectorySignallerClient" = type { ptr }
%"class.std::vector" = type { %"struct.std::_Vector_base" }
%"struct.std::_Vector_base" = type { %"struct.std::_Vector_base<gmx::ITrajectoryWriterClient *, std::allocator<gmx::ITrajectoryWriterClient *>>::_Vector_impl" }
%"struct.std::_Vector_base<gmx::ITrajectoryWriterClient *, std::allocator<gmx::ITrajectoryWriterClient *>>::_Vector_impl" = type { %"struct.std::_Vector_base<gmx::ITrajectoryWriterClient *, std::allocator<gmx::ITrajectoryWriterClient *>>::_Vector_impl_data" }
%"struct.std::_Vector_base<gmx::ITrajectoryWriterClient *, std::allocator<gmx::ITrajectoryWriterClient *>>::_Vector_impl_data" = type { ptr, ptr, ptr }
%"class.std::vector.2" = type { %"struct.std::_Vector_base.3" }
%"struct.std::_Vector_base.3" = type { %"struct.std::_Vector_base<std::function<void (gmx_mdoutf *, long, double, bool, bool)>, std::allocator<std::function<void (gmx_mdoutf *, long, double, bool, bool)>>>::_Vector_impl" }
%"struct.std::_Vector_base<std::function<void (gmx_mdoutf *, long, double, bool, bool)>, std::allocator<std::function<void (gmx_mdoutf *, long, double, bool, bool)>>>::_Vector_impl" = type { %"struct.std::_Vector_base<std::function<void (gmx_mdoutf *, long, double, bool, bool)>, std::allocator<std::function<void (gmx_mdoutf *, long, double, bool, bool)>>>::_Vector_impl_data" }
%"struct.std::_Vector_base<std::function<void (gmx_mdoutf *, long, double, bool, bool)>, std::allocator<std::function<void (gmx_mdoutf *, long, double, bool, bool)>>>::_Vector_impl_data" = type { ptr, ptr, ptr }
%"class.std::function.20" = type { %"class.std::_Function_base", ptr }

; Function Attrs: mustprogress nounwind uwtable
define linkonce_odr noundef ptr @_ZNSt9_Any_data9_M_accessEv(ptr noundef nonnull align 8 dereferenceable(16) %0) #2 comdat align 2 {
  %2 = alloca ptr, align 8
  store ptr %0, ptr %2, align 8, !tbaa !162
  %3 = load ptr, ptr %2, align 8
  %4 = getelementptr inbounds [16 x i8], ptr %3, i64 0, i64 0
  ret ptr %4
}

; Function Attrs: mustprogress nounwind uwtable
define internal noundef nonnull align 8 dereferenceable(8) ptr @"_ZNSt9_Any_data9_M_accessIPZN3gmx17TrajectoryElement12scheduleTaskEldRKSt8functionIFvS3_IFvvEEEEE3$_0EERT_v"(ptr noundef nonnull align 8 dereferenceable(16) %0) #2 align 2 {
  %2 = alloca ptr, align 8
  store ptr %0, ptr %2, align 8, !tbaa !162
  %3 = load ptr, ptr %2, align 8
  %4 = call noundef ptr @_ZNSt9_Any_data9_M_accessEv(ptr noundef nonnull align 8 dereferenceable(16) %3) #20
  ret ptr %4
}

; Function Attrs: mustprogress uwtable
define internal void @"_ZNSt14_Function_base13_Base_managerIZN3gmx17TrajectoryElement12scheduleTaskEldRKSt8functionIFvS3_IFvvEEEEE3$_0E9_M_createISA_EEvRSt9_Any_dataOT_St17integral_constantIbLb0EE"(ptr noundef nonnull align 8 dereferenceable(16) %0, ptr noundef nonnull align 8 dereferenceable(27) %1) #0 align 2 {
  %3 = alloca ptr, align 8
  %4 = alloca ptr, align 8
  store ptr %0, ptr %3, align 8, !tbaa !162
  store ptr %1, ptr %4, align 8, !tbaa !153
  %5 = call noalias noundef nonnull ptr @_Znwm(i64 noundef 32) #24
  %6 = load ptr, ptr %4, align 8, !tbaa !153
  call void @llvm.memcpy.p0.p0.i64(ptr align 16 %5, ptr align 8 %6, i64 32, i1 false), !tbaa.struct !177
  %7 = load ptr, ptr %3, align 8, !tbaa !162
  %8 = call noundef nonnull align 8 dereferenceable(8) ptr @"_ZNSt9_Any_data9_M_accessIPZN3gmx17TrajectoryElement12scheduleTaskEldRKSt8functionIFvS3_IFvvEEEEE3$_0EERT_v"(ptr noundef nonnull align 8 dereferenceable(16) %7) #20
  store ptr %5, ptr %8, align 8, !tbaa !153
  ret void
}

; Function Attrs: mustprogress nounwind uwtable
define linkonce_odr noundef zeroext i1 @_ZNKSt14_Function_base8_M_emptyEv(ptr noundef nonnull align 8 dereferenceable(24) %0) #2 comdat align 2 {
  %2 = alloca ptr, align 8
  store ptr %0, ptr %2, align 8, !tbaa !141
  %3 = load ptr, ptr %2, align 8
  %4 = getelementptr inbounds nuw %"class.std::_Function_base", ptr %3, i32 0, i32 1
  %5 = load ptr, ptr %4, align 8, !tbaa !140
  %6 = icmp ne ptr %5, null
  %7 = xor i1 %6, true
  ret i1 %7
}

; Function Attrs: mustprogress uwtable
define internal void @"_ZNSt14_Function_base13_Base_managerIZN3gmx17TrajectoryElement12scheduleTaskEldRKSt8functionIFvS3_IFvvEEEEE3$_0E15_M_init_functorISA_EEvRSt9_Any_dataOT_"(ptr noundef nonnull align 8 dereferenceable(16) %0, ptr noundef nonnull align 8 dereferenceable(27) %1) #0 align 2 {
  %3 = alloca ptr, align 8
  %4 = alloca ptr, align 8
  store ptr %0, ptr %3, align 8, !tbaa !162
  store ptr %1, ptr %4, align 8, !tbaa !153
  %5 = load ptr, ptr %3, align 8, !tbaa !162
  %6 = load ptr, ptr %4, align 8, !tbaa !153
  call void @"_ZNSt14_Function_base13_Base_managerIZN3gmx17TrajectoryElement12scheduleTaskEldRKSt8functionIFvS3_IFvvEEEEE3$_0E9_M_createISA_EEvRSt9_Any_dataOT_St17integral_constantIbLb0EE"(ptr noundef nonnull align 8 dereferenceable(16) %5, ptr noundef nonnull align 8 dereferenceable(27) %6)
  ret void
}

; Function Attrs: mustprogress nounwind uwtable
define internal noundef zeroext i1 @"_ZNSt14_Function_base13_Base_managerIZN3gmx17TrajectoryElement12scheduleTaskEldRKSt8functionIFvS3_IFvvEEEEE3$_0E21_M_not_empty_functionISA_EEbRKT_"(ptr noundef nonnull align 8 dereferenceable(27) %0) #2 align 2 {
  %2 = alloca ptr, align 8
  store ptr %0, ptr %2, align 8, !tbaa !153
  ret i1 true
}

; Function Attrs: mustprogress nounwind uwtable
define linkonce_odr void @_ZNSt14_Function_baseC2Ev(ptr noundef nonnull align 8 dereferenceable(24) %0) unnamed_addr #2 comdat align 2 {
  %2 = alloca ptr, align 8
  store ptr %0, ptr %2, align 8, !tbaa !141
  %3 = load ptr, ptr %2, align 8
  %4 = getelementptr inbounds nuw %"class.std::_Function_base", ptr %3, i32 0, i32 0
  store ptr null, ptr %4, align 8, !tbaa !139
  %5 = getelementptr inbounds nuw %"class.std::_Function_base", ptr %3, i32 0, i32 1
  store ptr null, ptr %5, align 8, !tbaa !140
  ret void
}

; Function Attrs: mustprogress nounwind uwtable
define linkonce_odr void @_ZNSt14_Function_baseD2Ev(ptr noundef nonnull align 8 dereferenceable(24) %0) unnamed_addr #2 comdat align 2 personality ptr @__gxx_personality_v0 {
  %2 = alloca ptr, align 8
  store ptr %0, ptr %2, align 8, !tbaa !141
  %3 = load ptr, ptr %2, align 8
  %4 = getelementptr inbounds nuw %"class.std::_Function_base", ptr %3, i32 0, i32 1
  %5 = load ptr, ptr %4, align 8, !tbaa !140
  %6 = icmp ne ptr %5, null
  br i1 %6, label %7, label %14

7:                                                ; preds = %1
  %8 = getelementptr inbounds nuw %"class.std::_Function_base", ptr %3, i32 0, i32 1
  %9 = load ptr, ptr %8, align 8, !tbaa !140
  %10 = getelementptr inbounds nuw %"class.std::_Function_base", ptr %3, i32 0, i32 0
  %11 = getelementptr inbounds nuw %"class.std::_Function_base", ptr %3, i32 0, i32 0
  %12 = invoke noundef zeroext i1 %9(ptr noundef nonnull align 8 dereferenceable(16) %10, ptr noundef nonnull align 8 dereferenceable(16) %11, i32 noundef 3)
          to label %13 unwind label %15

13:                                               ; preds = %7
  br label %14

14:                                               ; preds = %13, %1
  ret void

15:                                               ; preds = %7
  %16 = landingpad { ptr, i32 }
          catch ptr null
  %17 = extractvalue { ptr, i32 } %16, 0
  call void @__clang_call_terminate(ptr %17) #22
  unreachable
}

; Function Attrs: mustprogress uwtable
define linkonce_odr void @_ZNKSt8functionIFvS_IFvvEEEEclES1_(ptr noundef nonnull align 8 dereferenceable(32) %0, ptr noundef %1) #0 comdat align 2 {
  %3 = alloca ptr, align 8
  %4 = alloca ptr, align 8
  store ptr %0, ptr %3, align 8, !tbaa !13
  store ptr %1, ptr %4, align 8, !tbaa !167
  %5 = load ptr, ptr %3, align 8
  %6 = call noundef zeroext i1 @_ZNKSt14_Function_base8_M_emptyEv(ptr noundef nonnull align 8 dereferenceable(24) %5)
  br i1 %6, label %7, label %8

7:                                                ; preds = %2
  call void @_ZSt25__throw_bad_function_callv() #23
  unreachable

8:                                                ; preds = %2
  %9 = getelementptr inbounds nuw %"class.std::function.20", ptr %5, i32 0, i32 1
  %10 = load ptr, ptr %9, align 8, !tbaa !169
  %11 = getelementptr inbounds nuw %"class.std::_Function_base", ptr %5, i32 0, i32 0
  call void %10(ptr noundef nonnull align 8 dereferenceable(16) %11, ptr noundef nonnull align 8 dereferenceable(32) %1)
  ret void
}

; Function Attrs: mustprogress uwtable
define internal void @"_ZNSt8functionIFvvEEC2IZN3gmx17TrajectoryElement12scheduleTaskEldRKS_IFvS1_EEE3$_0vEEOT_"(ptr noundef nonnull align 8 dereferenceable(32) %0, ptr noundef nonnull align 8 dereferenceable(27) %1) unnamed_addr #0 align 2 personality ptr @__gxx_personality_v0 {
  %3 = alloca ptr, align 8
  %4 = alloca ptr, align 8
  %5 = alloca ptr, align 8
  %6 = alloca i32, align 4
  store ptr %0, ptr %3, align 8, !tbaa !167
  store ptr %1, ptr %4, align 8, !tbaa !153
  %7 = load ptr, ptr %3, align 8
  %8 = getelementptr inbounds i8, ptr %7, i64 0
  call void @llvm.memset.p0.i64(ptr align 8 %8, i8 0, i64 24, i1 false)
  call void @_ZNSt14_Function_baseC2Ev(ptr noundef nonnull align 8 dereferenceable(24) %7) #20
  %9 = getelementptr inbounds nuw %"class.std::function.22", ptr %7, i32 0, i32 1
  store ptr null, ptr %9, align 8, !tbaa !171
  %10 = load ptr, ptr %4, align 8, !tbaa !153
  %11 = call noundef zeroext i1 @"_ZNSt14_Function_base13_Base_managerIZN3gmx17TrajectoryElement12scheduleTaskEldRKSt8functionIFvS3_IFvvEEEEE3$_0E21_M_not_empty_functionISA_EEbRKT_"(ptr noundef nonnull align 8 dereferenceable(27) %10) #20
  br i1 %11, label %12, label %22

12:                                               ; preds = %2
  %13 = getelementptr inbounds nuw %"class.std::_Function_base", ptr %7, i32 0, i32 0
  %14 = load ptr, ptr %4, align 8, !tbaa !153
  invoke void @"_ZNSt14_Function_base13_Base_managerIZN3gmx17TrajectoryElement12scheduleTaskEldRKSt8functionIFvS3_IFvvEEEEE3$_0E15_M_init_functorISA_EEvRSt9_Any_dataOT_"(ptr noundef nonnull align 8 dereferenceable(16) %13, ptr noundef nonnull align 8 dereferenceable(27) %14)
          to label %15 unwind label %18

15:                                               ; preds = %12
  %16 = getelementptr inbounds nuw %"class.std::function.22", ptr %7, i32 0, i32 1
  store ptr @"_ZNSt17_Function_handlerIFvvEZN3gmx17TrajectoryElement12scheduleTaskEldRKSt8functionIFvS3_IS0_EEEE3$_0E9_M_invokeERKSt9_Any_data", ptr %16, align 8, !tbaa !171
  %17 = getelementptr inbounds nuw %"class.std::_Function_base", ptr %7, i32 0, i32 1
  store ptr @"_ZNSt17_Function_handlerIFvvEZN3gmx17TrajectoryElement12scheduleTaskEldRKSt8functionIFvS3_IS0_EEEE3$_0E10_M_managerERSt9_Any_dataRKSB_St18_Manager_operation", ptr %17, align 8, !tbaa !140
  br label %22

18:                                               ; preds = %12
  %19 = landingpad { ptr, i32 }
          cleanup
  %20 = extractvalue { ptr, i32 } %19, 0
  store ptr %20, ptr %5, align 8
  %21 = extractvalue { ptr, i32 } %19, 1
  store i32 %21, ptr %6, align 4
  call void @_ZNSt14_Function_baseD2Ev(ptr noundef nonnull align 8 dereferenceable(24) %7) #20
  br label %23

22:                                               ; preds = %15, %2
  ret void

23:                                               ; preds = %18
  %24 = load ptr, ptr %5, align 8
  %25 = load i32, ptr %6, align 4
  %26 = insertvalue { ptr, i32 } poison, ptr %24, 0
  %27 = insertvalue { ptr, i32 } %26, i32 %25, 1
  resume { ptr, i32 } %27
}

; Function Attrs: mustprogress uwtable
define void @_ZN3gmx17TrajectoryElement12scheduleTaskEldRKSt8functionIFvS1_IFvvEEEE(ptr noundef nonnull align 8 dereferenceable(128) %0, i64 noundef %1, double noundef %2, ptr noundef nonnull align 8 dereferenceable(32) %3) unnamed_addr #0 align 2 personality ptr @__gxx_personality_v0 {
  %5 = alloca ptr, align 8
  %6 = alloca i64, align 8
  %7 = alloca double, align 8
  %8 = alloca ptr, align 8
  %9 = alloca i8, align 1
  %10 = alloca i8, align 1
  %11 = alloca i8, align 1
  %12 = alloca %"class.std::function.22", align 8
  %13 = alloca %class.anon, align 8
  %14 = alloca ptr, align 8
  %15 = alloca i32, align 4
  store ptr %0, ptr %5, align 8, !tbaa !4
  store i64 %1, ptr %6, align 8, !tbaa !9
  store double %2, ptr %7, align 8, !tbaa !11
  store ptr %3, ptr %8, align 8, !tbaa !13
  %16 = load ptr, ptr %5, align 8
  call void @llvm.lifetime.start.p0(i64 1, ptr %9) #20
  %17 = getelementptr inbounds nuw %"class.gmx::TrajectoryElement", ptr %16, i32 0, i32 3
  %18 = load i64, ptr %17, align 8, !tbaa !15
  %19 = load i64, ptr %6, align 8, !tbaa !9
  %20 = icmp eq i64 %18, %19
  %21 = zext i1 %20 to i8
  store i8 %21, ptr %9, align 1, !tbaa !32
  call void @llvm.lifetime.start.p0(i64 1, ptr %10) #20
  %22 = getelementptr inbounds nuw %"class.gmx::TrajectoryElement", ptr %16, i32 0, i32 4
  %23 = load i64, ptr %22, align 8, !tbaa !34
  %24 = load i64, ptr %6, align 8, !tbaa !9
  %25 = icmp eq i64 %23, %24
  %26 = zext i1 %25 to i8
  store i8 %26, ptr %10, align 1, !tbaa !32
  call void @llvm.lifetime.start.p0(i64 1, ptr %11) #20
  %27 = getelementptr inbounds nuw %"class.gmx::TrajectoryElement", ptr %16, i32 0, i32 5
  %28 = load i64, ptr %27, align 8, !tbaa !35
  %29 = load i64, ptr %6, align 8, !tbaa !9
  %30 = icmp eq i64 %28, %29
  %31 = zext i1 %30 to i8
  store i8 %31, ptr %11, align 1, !tbaa !32
  %32 = load i8, ptr %9, align 1, !tbaa !32, !range !36, !noundef !37
  %33 = trunc i8 %32 to i1
  br i1 %33, label %40, label %34

34:                                               ; preds = %4
  %35 = load i8, ptr %10, align 1, !tbaa !32, !range !36, !noundef !37
  %36 = trunc i8 %35 to i1
  br i1 %36, label %40, label %37

37:                                               ; preds = %34
  %38 = load i8, ptr %11, align 1, !tbaa !32, !range !36, !noundef !37
  %39 = trunc i8 %38 to i1
  br i1 %39, label %40, label %64

40:                                               ; preds = %37, %34, %4
  %41 = load ptr, ptr %8, align 8, !tbaa !13
  call void @llvm.lifetime.start.p0(i64 32, ptr %13) #20
  %42 = getelementptr inbounds nuw %class.anon, ptr %13, i32 0, i32 0
  store ptr %16, ptr %42, align 8, !tbaa !38
  %43 = getelementptr inbounds nuw %class.anon, ptr %13, i32 0, i32 1
  %44 = load i64, ptr %6, align 8, !tbaa !9
  store i64 %44, ptr %43, align 8, !tbaa !40
  %45 = getelementptr inbounds nuw %class.anon, ptr %13, i32 0, i32 2
  %46 = load double, ptr %7, align 8, !tbaa !11
  store double %46, ptr %45, align 8, !tbaa !41
  %47 = getelementptr inbounds nuw %class.anon, ptr %13, i32 0, i32 3
  %48 = load i8, ptr %10, align 1, !tbaa !32, !range !36, !noundef !37
  %49 = trunc i8 %48 to i1
  %50 = zext i1 %49 to i8
  store i8 %50, ptr %47, align 8, !tbaa !42
  %51 = getelementptr inbounds nuw %class.anon, ptr %13, i32 0, i32 4
  %52 = load i8, ptr %9, align 1, !tbaa !32, !range !36, !noundef !37
  %53 = trunc i8 %52 to i1
  %54 = zext i1 %53 to i8
  store i8 %54, ptr %51, align 1, !tbaa !43
  %55 = getelementptr inbounds nuw %class.anon, ptr %13, i32 0, i32 5
  %56 = load i8, ptr %11, align 1, !tbaa !32, !range !36, !noundef !37
  %57 = trunc i8 %56 to i1
  %58 = zext i1 %57 to i8
  store i8 %58, ptr %55, align 2, !tbaa !44
  call void @"_ZNSt8functionIFvvEEC2IZN3gmx17TrajectoryElement12scheduleTaskEldRKS_IFvS1_EEE3$_0vEEOT_"(ptr noundef nonnull align 8 dereferenceable(32) %12, ptr noundef nonnull align 8 dereferenceable(27) %13)
  invoke void @_ZNKSt8functionIFvS_IFvvEEEEclES1_(ptr noundef nonnull align 8 dereferenceable(32) %41, ptr noundef %12)
          to label %59 unwind label %60

59:                                               ; preds = %40
  call void @_ZNSt14_Function_baseD2Ev(ptr noundef nonnull align 8 dereferenceable(32) %12) #20
  call void @llvm.lifetime.end.p0(i64 32, ptr %13) #20
  br label %64

60:                                               ; preds = %40
  %61 = landingpad { ptr, i32 }
          cleanup
  %62 = extractvalue { ptr, i32 } %61, 0
  store ptr %62, ptr %14, align 8
  %63 = extractvalue { ptr, i32 } %61, 1
  store i32 %63, ptr %15, align 4
  call void @_ZNSt14_Function_baseD2Ev(ptr noundef nonnull align 8 dereferenceable(32) %12) #20
  call void @llvm.lifetime.end.p0(i64 32, ptr %13) #20
  call void @llvm.lifetime.end.p0(i64 1, ptr %11) #20
  call void @llvm.lifetime.end.p0(i64 1, ptr %10) #20
  call void @llvm.lifetime.end.p0(i64 1, ptr %9) #20
  br label %65

64:                                               ; preds = %59, %37
  call void @llvm.lifetime.end.p0(i64 1, ptr %11) #20
  call void @llvm.lifetime.end.p0(i64 1, ptr %10) #20
  call void @llvm.lifetime.end.p0(i64 1, ptr %9) #20
  ret void

65:                                               ; preds = %60
  %66 = load ptr, ptr %14, align 8
  %67 = load i32, ptr %15, align 4
  %68 = insertvalue { ptr, i32 } poison, ptr %66, 0
  %69 = insertvalue { ptr, i32 } %68, i32 %67, 1
  resume { ptr, i32 } %69
}