; Function Attrs: mustprogress uwtable
define void @_ZN3gmx17TrajectoryElement12scheduleTaskEldRKSt8functionIFvS1_IFvvEEEE(ptr noundef nonnull align 8 dereferenceable(128) %0, i64 noundef %1, double noundef %2, ptr noundef nonnull align 8 dereferenceable(32) %3) unnamed_addr #0 align 2 personality ptr @__gxx_personality_v0 {
  %5 = alloca %"class.std::function.22", align 8
  %6 = getelementptr inbounds nuw i8, ptr %0, i64 24
  %7 = load i64, ptr %6, align 8, !tbaa !4
  %8 = icmp eq i64 %7, %1
  %9 = getelementptr inbounds nuw i8, ptr %0, i64 32
  %10 = load i64, ptr %9, align 8, !tbaa !25
  %11 = icmp eq i64 %10, %1
  %12 = getelementptr inbounds nuw i8, ptr %0, i64 40
  %13 = load i64, ptr %12, align 8, !tbaa !26
  %14 = icmp eq i64 %13, %1
  %brmerge = select i1 %8, i1 true, i1 %11
  %brmerge14 = select i1 %brmerge, i1 true, i1 %14
  br i1 %brmerge14, label %15, label %_ZNSt14_Function_baseD2Ev.exit

15:                                               ; preds = %4
  %16 = zext i1 %14 to i8
  %17 = zext i1 %11 to i8
  %18 = zext i1 %8 to i8
  %19 = getelementptr inbounds nuw i8, ptr %5, i64 16
  %20 = getelementptr inbounds nuw i8, ptr %5, i64 24
  %21 = getelementptr inbounds nuw i8, ptr %5, i64 8
  store i64 0, ptr %21, align 8
  %22 = tail call noalias noundef nonnull dereferenceable(32) ptr @_Znwm(i64 noundef 32) #23
  store ptr %0, ptr %22, align 16, !tbaa !27
  %.sroa.5.0..sroa_idx = getelementptr inbounds nuw i8, ptr %22, i64 8
  store i64 %1, ptr %.sroa.5.0..sroa_idx, align 8, !tbaa !29
  %.sroa.6.0..sroa_idx = getelementptr inbounds nuw i8, ptr %22, i64 16
  store double %2, ptr %.sroa.6.0..sroa_idx, align 16, !tbaa !30
  %.sroa.7.0..sroa_idx = getelementptr inbounds nuw i8, ptr %22, i64 24
  store i8 %17, ptr %.sroa.7.0..sroa_idx, align 8, !tbaa !32
  %.sroa.8.0..sroa_idx = getelementptr inbounds nuw i8, ptr %22, i64 25
  store i8 %18, ptr %.sroa.8.0..sroa_idx, align 1, !tbaa !32
  %.sroa.9.0..sroa_idx = getelementptr inbounds nuw i8, ptr %22, i64 26
  store i8 %16, ptr %.sroa.9.0..sroa_idx, align 2, !tbaa !32
  store ptr %22, ptr %5, align 8, !tbaa !34
  store ptr @"_ZNSt17_Function_handlerIFvvEZN3gmx17TrajectoryElement12scheduleTaskEldRKSt8functionIFvS3_IS0_EEEE3$_0E9_M_invokeERKSt9_Any_data", ptr %20, align 8, !tbaa !35
  store ptr @"_ZNSt17_Function_handlerIFvvEZN3gmx17TrajectoryElement12scheduleTaskEldRKSt8functionIFvS3_IS0_EEEE3$_0E10_M_managerERSt9_Any_dataRKSB_St18_Manager_operation", ptr %19, align 8, !tbaa !38
  %23 = getelementptr inbounds nuw i8, ptr %3, i64 16
  %24 = load ptr, ptr %23, align 8, !tbaa !38
  %.not.i.i = icmp eq ptr %24, null
  br i1 %.not.i.i, label %25, label %26

25:                                               ; preds = %15
  invoke void @_ZSt25__throw_bad_function_callv() #24
          to label %.noexc unwind label %35

.noexc:                                           ; preds = %25
  unreachable

26:                                               ; preds = %15
  %27 = getelementptr inbounds nuw i8, ptr %3, i64 24
  %28 = load ptr, ptr %27, align 8, !tbaa !39
  invoke void %28(ptr noundef nonnull align 8 dereferenceable(32) %3, ptr noundef nonnull align 8 dereferenceable(32) %5)
          to label %_ZNKSt8functionIFvS_IFvvEEEEclES1_.exit unwind label %35

_ZNKSt8functionIFvS_IFvvEEEEclES1_.exit:          ; preds = %26
  %29 = load ptr, ptr %19, align 8, !tbaa !38
  %.not.i = icmp eq ptr %29, null
  br i1 %.not.i, label %_ZNSt14_Function_baseD2Ev.exit, label %30

30:                                               ; preds = %_ZNKSt8functionIFvS_IFvvEEEEclES1_.exit
  %31 = invoke noundef zeroext i1 %29(ptr noundef nonnull align 8 dereferenceable(32) %5, ptr noundef nonnull align 8 dereferenceable(32) %5, i32 noundef 3)
          to label %_ZNSt14_Function_baseD2Ev.exit unwind label %32

32:                                               ; preds = %30
  %33 = landingpad { ptr, i32 }
          catch ptr null
  %34 = extractvalue { ptr, i32 } %33, 0
  call void @__clang_call_terminate(ptr %34) #25
  unreachable

35:                                               ; preds = %26, %25
  %36 = landingpad { ptr, i32 }
          cleanup
  %37 = load ptr, ptr %19, align 8, !tbaa !38
  %.not.i16 = icmp eq ptr %37, null
  br i1 %.not.i16, label %_ZNSt14_Function_baseD2Ev.exit17, label %38

38:                                               ; preds = %35
  %39 = invoke noundef zeroext i1 %37(ptr noundef nonnull align 8 dereferenceable(32) %5, ptr noundef nonnull align 8 dereferenceable(32) %5, i32 noundef 3)
          to label %_ZNSt14_Function_baseD2Ev.exit17 unwind label %40

40:                                               ; preds = %38
  %41 = landingpad { ptr, i32 }
          catch ptr null
  %42 = extractvalue { ptr, i32 } %41, 0
  call void @__clang_call_terminate(ptr %42) #25
  unreachable

_ZNSt14_Function_baseD2Ev.exit17:                 ; preds = %35, %38
  resume { ptr, i32 } %36

_ZNSt14_Function_baseD2Ev.exit:                   ; preds = %30, %_ZNKSt8functionIFvS_IFvvEEEEclES1_.exit, %4
  ret void
}